target datalayout = "e-m:e-p270:32:32-p271:32:32-p272:64:64-i64:64-i128:128-f80:128-n8:16:32:64-S128"
target triple = "x86_64-pc-linux-gnu"

%struct.uv_loop_s = type { ptr, i32, [2 x ptr], %union.anon.2, ptr, i32, i64, i32, [2 x ptr], [2 x ptr], ptr, i32, i32, [2 x ptr], %union.pthread_mutex_t, %struct.uv_async_s, %union.pthread_rwlock_t, ptr, [2 x ptr], [2 x ptr], [2 x ptr], [2 x ptr], [2 x ptr], ptr, %struct.uv__io_s, i32, %struct.anon, i64, i64, [2 x i32], %struct.uv__io_s, %struct.uv_signal_s, i32, %struct.uv__io_s, ptr, i32 }
%union.anon.2 = type { ptr }
%union.pthread_mutex_t = type { %struct.__pthread_mutex_s }
%struct.__pthread_mutex_s = type { i32, i32, i32, i32, i32, i16, i16, %struct.__pthread_internal_list }
%struct.__pthread_internal_list = type { ptr, ptr }
%struct.uv_async_s = type { ptr, ptr, i32, ptr, [2 x ptr], %union.anon.3, ptr, i32, ptr, [2 x ptr], i32 }
%union.anon.3 = type { [4 x ptr] }
%union.pthread_rwlock_t = type { %struct.__pthread_rwlock_arch_t }
%struct.__pthread_rwlock_arch_t = type { i32, i32, i32, i32, i32, i32, i32, i32, i8, [7 x i8], i64, i32 }
%struct.anon = type { ptr, i32 }
%struct.uv_signal_s = type { ptr, ptr, i32, ptr, [2 x ptr], %union.anon.4, ptr, i32, ptr, i32, %struct.anon.5, i32, i32 }
%union.anon.4 = type { [4 x ptr] }
%struct.anon.5 = type { ptr, ptr, ptr, i32 }
%struct.uv__io_s = type { ptr, [2 x ptr], [2 x ptr], i32, i32, i32 }
%struct.uv_handle_s = type { ptr, ptr, i32, ptr, [2 x ptr], %union.anon.6, ptr, i32 }
%union.anon.6 = type { [4 x ptr] }

; Function Attrs: nounwind uwtable
define dso_local void @uv_unref(ptr noundef %0) #0 {
  %2 = alloca ptr, align 8
  store ptr %0, ptr %2, align 8, !tbaa !63
  br label %3

3:                                                ; preds = %1
  %4 = load ptr, ptr %2, align 8, !tbaa !63
  %5 = getelementptr inbounds nuw %struct.uv_handle_s, ptr %4, i32 0, i32 7
  %6 = load i32, ptr %5, align 8, !tbaa !64
  %7 = and i32 %6, 8
  %8 = icmp eq i32 %7, 0
  br i1 %8, label %9, label %10

9:                                                ; preds = %3
  br label %37

10:                                               ; preds = %3
  %11 = load ptr, ptr %2, align 8, !tbaa !63
  %12 = getelementptr inbounds nuw %struct.uv_handle_s, ptr %11, i32 0, i32 7
  %13 = load i32, ptr %12, align 8, !tbaa !64
  %14 = and i32 %13, -9
  store i32 %14, ptr %12, align 8, !tbaa !64
  %15 = load ptr, ptr %2, align 8, !tbaa !63
  %16 = getelementptr inbounds nuw %struct.uv_handle_s, ptr %15, i32 0, i32 7
  %17 = load i32, ptr %16, align 8, !tbaa !64
  %18 = and i32 %17, 1
  %19 = icmp ne i32 %18, 0
  br i1 %19, label %20, label %21

20:                                               ; preds = %10
  br label %37

21:                                               ; preds = %10
  %22 = load ptr, ptr %2, align 8, !tbaa !63
  %23 = getelementptr inbounds nuw %struct.uv_handle_s, ptr %22, i32 0, i32 7
  %24 = load i32, ptr %23, align 8, !tbaa !64
  %25 = and i32 %24, 4
  %26 = icmp ne i32 %25, 0
  br i1 %26, label %27, label %36

27:                                               ; preds = %21
  br label %28

28:                                               ; preds = %27
  %29 = load ptr, ptr %2, align 8, !tbaa !63
  %30 = getelementptr inbounds nuw %struct.uv_handle_s, ptr %29, i32 0, i32 1
  %31 = load ptr, ptr %30, align 8, !tbaa !72
  %32 = getelementptr inbounds nuw %struct.uv_loop_s, ptr %31, i32 0, i32 1
  %33 = load i32, ptr %32, align 8, !tbaa !73
  %34 = add i32 %33, -1
  store i32 %34, ptr %32, align 8, !tbaa !73
  br label %35

35:                                               ; preds = %28
  br label %36

36:                                               ; preds = %35, %21
  br label %37

37:                                               ; preds = %36, %20, %9
  ret void
}