; Function Attrs: mustprogress nofree norecurse nosync nounwind willreturn memory(readwrite, inaccessiblemem: none) uwtable
define dso_local void @uv_unref(ptr noundef captures(none) %0) local_unnamed_addr #13 {
  %2 = getelementptr inbounds nuw i8, ptr %0, i64 88
  %3 = load i32, ptr %2, align 8, !tbaa !40
  %4 = and i32 %3, 8
  %5 = icmp eq i32 %4, 0
  br i1 %5, label %15, label %6

6:                                                ; preds = %1
  %7 = and i32 %3, -9
  store i32 %7, ptr %2, align 8, !tbaa !40
  %8 = and i32 %3, 5
  %or.cond.not = icmp eq i32 %8, 4
  br i1 %or.cond.not, label %9, label %15

9:                                                ; preds = %6
  %10 = getelementptr inbounds nuw i8, ptr %0, i64 8
  %11 = load ptr, ptr %10, align 8, !tbaa !47
  %12 = getelementptr inbounds nuw i8, ptr %11, i64 8
  %13 = load i32, ptr %12, align 8, !tbaa !48
  %14 = add i32 %13, -1
  store i32 %14, ptr %12, align 8, !tbaa !48
  br label %15

15:                                               ; preds = %9, %6, %1
  ret void
}